target datalayout = "e-m:e-p270:32:32-p271:32:32-p272:64:64-i64:64-i128:128-f80:128-n8:16:32:64-S128"
target triple = "x86_64-pc-linux-gnu"

%struct.H5FD_core_fapl_t = type { i64, i8, i8, i64 }

@H5FD_init_g = external global i8, align 1
@H5_libterm_g = external global i8, align 1
@.str.1 = private unnamed_addr constant [102 x i8] c"generated/home/dtcxzyw/WorkSpace/Projects/compilers/llvm-opt-benchmark/bench/hdf5/hdf5/src/H5FDcore.c\00", align 1
@H5E_VFL_g = external global i64, align 8
@H5E_ARGS_g = external global i64, align 8
@H5E_BADTYPE_g = external global i64, align 8
@.str.11 = private unnamed_addr constant [32 x i8] c"not a file access property list\00", align 1
@.str.12 = private unnamed_addr constant [5 x i8] c"core\00", align 1
@.str.22 = private unnamed_addr constant [37 x i8] c"%s, errno = %d, error message = '%s'\00", align 1
@__func__.H5FD__core_delete = private unnamed_addr constant [18 x i8] c"H5FD__core_delete\00", align 1
@H5E_CANTDELETEFILE_g = external global i64, align 8
@.str.53 = private unnamed_addr constant [22 x i8] c"unable to delete file\00", align 1
@.str.54 = private unnamed_addr constant [12 x i8] c"HDF5_DRIVER\00", align 1
@.str.55 = private unnamed_addr constant [11 x i8] c"core_paged\00", align 1
@H5FD_core_default_config_g = internal constant { i64, i8, i8, [6 x i8], i64 } { i64 1048576, i8 1, i8 0, [6 x i8] zeroinitializer, i64 524288 }, align 8
@H5FD_core_default_paged_config_g = internal constant { i64, i8, i8, [6 x i8], i64 } { i64 1048576, i8 1, i8 1, [6 x i8] zeroinitializer, i64 4096 }, align 8

; Function Attrs: inlinehint nounwind uwtable
define internal ptr @H5FD__core_get_default_config() #5 {
  %1 = alloca ptr, align 8
  %2 = alloca ptr, align 8
  %3 = alloca i32, align 4
  call void @llvm.lifetime.start.p0(i64 8, ptr %2) #12
  %4 = call ptr @getenv(ptr noundef @.str.54) #12
  store ptr %4, ptr %2, align 8, !tbaa !23
  %5 = load ptr, ptr %2, align 8, !tbaa !23
  %6 = icmp ne ptr %5, null
  br i1 %6, label %7, label %19

7:                                                ; preds = %0
  %8 = load ptr, ptr %2, align 8, !tbaa !23
  %9 = call i32 @strcmp(ptr noundef %8, ptr noundef @.str.12) #13
  %10 = icmp ne i32 %9, 0
  br i1 %10, label %12, label %11

11:                                               ; preds = %7
  store ptr @H5FD_core_default_config_g, ptr %1, align 8
  store i32 1, ptr %3, align 4
  br label %20

12:                                               ; preds = %7
  %13 = load ptr, ptr %2, align 8, !tbaa !23
  %14 = call i32 @strcmp(ptr noundef %13, ptr noundef @.str.55) #13
  %15 = icmp ne i32 %14, 0
  br i1 %15, label %17, label %16

16:                                               ; preds = %12
  store ptr @H5FD_core_default_paged_config_g, ptr %1, align 8
  store i32 1, ptr %3, align 4
  br label %20

17:                                               ; preds = %12
  br label %18

18:                                               ; preds = %17
  br label %19

19:                                               ; preds = %18, %0
  store ptr @H5FD_core_default_config_g, ptr %1, align 8
  store i32 1, ptr %3, align 4
  br label %20

20:                                               ; preds = %19, %16, %11
  call void @llvm.lifetime.end.p0(i64 8, ptr %2) #12
  %21 = load ptr, ptr %1, align 8
  ret ptr %21
}

; Function Attrs: nounwind uwtable
define internal i32 @H5FD__core_delete(ptr noundef %0, i64 noundef %1) #0 {
  %3 = alloca i32, align 4
  %4 = alloca ptr, align 8
  %5 = alloca i64, align 8
  %6 = alloca ptr, align 8
  %7 = alloca ptr, align 8
  %8 = alloca i32, align 4
  %9 = alloca i8, align 1
  %10 = alloca i32, align 4
  %11 = alloca i32, align 4
  store ptr %0, ptr %4, align 8, !tbaa !23
  store i64 %1, ptr %5, align 8, !tbaa !11
  call void @llvm.lifetime.start.p0(i64 8, ptr %6) #12
  store ptr null, ptr %6, align 8, !tbaa !16
  call void @llvm.lifetime.start.p0(i64 8, ptr %7) #12
  call void @llvm.lifetime.start.p0(i64 4, ptr %8) #12
  store i32 0, ptr %8, align 4, !tbaa !3
  call void @llvm.lifetime.start.p0(i64 1, ptr %9) #12
  store i8 0, ptr %9, align 1, !tbaa !7
  %12 = load i8, ptr @H5FD_init_g, align 1, !tbaa !7, !range !9, !noundef !10
  %13 = trunc i8 %12 to i1
  br i1 %13, label %18, label %14

14:                                               ; preds = %2
  %15 = load i8, ptr @H5_libterm_g, align 1, !tbaa !7, !range !9, !noundef !10
  %16 = trunc i8 %15 to i1
  %17 = xor i1 %16, true
  br label %18

18:                                               ; preds = %14, %2
  %19 = phi i1 [ true, %2 ], [ %17, %14 ]
  %20 = xor i1 %19, true
  %21 = xor i1 %20, true
  %22 = zext i1 %21 to i32
  %23 = sext i32 %22 to i64
  %24 = call i64 @llvm.expect.i64(i64 %23, i64 1)
  %25 = icmp ne i64 %24, 0
  br i1 %25, label %26, label %94

26:                                               ; preds = %18
  %27 = load i64, ptr %5, align 8, !tbaa !11
  %28 = call ptr @H5I_object(i64 noundef %27)
  store ptr %28, ptr %7, align 8, !tbaa !13
  %29 = icmp eq ptr null, %28
  br i1 %29, label %30, label %49

30:                                               ; preds = %26
  br label %31

31:                                               ; preds = %30
  br label %32

32:                                               ; preds = %31
  br label %33

33:                                               ; preds = %32
  %34 = load i64, ptr @H5E_ARGS_g, align 8, !tbaa !11
  %35 = load i64, ptr @H5E_BADTYPE_g, align 8, !tbaa !11
  %36 = call i32 (ptr, ptr, i32, i64, i64, ptr, ...) @H5E_printf_stack(ptr noundef @.str.1, ptr noundef @__func__.H5FD__core_delete, i32 noundef 1700, i64 noundef %34, i64 noundef %35, ptr noundef @.str.11)
  br label %37

37:                                               ; preds = %33
  br label %38

38:                                               ; preds = %37
  store i8 1, ptr %9, align 1, !tbaa !7
  %39 = load i8, ptr %9, align 1, !tbaa !7, !range !9, !noundef !10
  %40 = trunc i8 %39 to i1
  %41 = zext i1 %40 to i8
  store i8 %41, ptr %9, align 1, !tbaa !7
  br label %42

42:                                               ; preds = %38
  br label %43

43:                                               ; preds = %42
  br label %44

44:                                               ; preds = %43
  store i32 -1, ptr %8, align 4, !tbaa !3
  br label %93

45:                                               ; No predecessors!
  br label %46

46:                                               ; preds = %45
  br label %47

47:                                               ; preds = %46
  br label %48

48:                                               ; preds = %47
  br label %49

49:                                               ; preds = %48, %26
  %50 = load ptr, ptr %7, align 8, !tbaa !13
  %51 = call ptr @H5P_peek_driver_info(ptr noundef %50)
  store ptr %51, ptr %6, align 8, !tbaa !16
  %52 = icmp eq ptr null, %51
  br i1 %52, label %53, label %55

53:                                               ; preds = %49
  %54 = call ptr @H5FD__core_get_default_config()
  store ptr %54, ptr %6, align 8, !tbaa !16
  br label %55

55:                                               ; preds = %53, %49
  %56 = load ptr, ptr %6, align 8, !tbaa !16
  %57 = getelementptr inbounds nuw %struct.H5FD_core_fapl_t, ptr %56, i32 0, i32 1
  %58 = load i8, ptr %57, align 8, !tbaa !20, !range !9, !noundef !10
  %59 = trunc i8 %58 to i1
  br i1 %59, label %60, label %92

60:                                               ; preds = %55
  %61 = load ptr, ptr %4, align 8, !tbaa !23
  %62 = call i32 @remove(ptr noundef %61) #12
  %63 = icmp slt i32 %62, 0
  br i1 %63, label %64, label %91

64:                                               ; preds = %60
  call void @llvm.lifetime.start.p0(i64 4, ptr %10) #12
  %65 = call ptr @__errno_location() #15
  %66 = load i32, ptr %65, align 4, !tbaa !3
  store i32 %66, ptr %10, align 4, !tbaa !3
  br label %67

67:                                               ; preds = %64
  br label %68

68:                                               ; preds = %67
  br label %69

69:                                               ; preds = %68
  %70 = load i64, ptr @H5E_VFL_g, align 8, !tbaa !11
  %71 = load i64, ptr @H5E_CANTDELETEFILE_g, align 8, !tbaa !11
  %72 = load i32, ptr %10, align 4, !tbaa !3
  %73 = load i32, ptr %10, align 4, !tbaa !3
  %74 = call ptr @strerror(i32 noundef %73) #12
  %75 = call i32 (ptr, ptr, i32, i64, i64, ptr, ...) @H5E_printf_stack(ptr noundef @.str.1, ptr noundef @__func__.H5FD__core_delete, i32 noundef 1706, i64 noundef %70, i64 noundef %71, ptr noundef @.str.22, ptr noundef @.str.53, i32 noundef %72, ptr noundef %74)
  br label %76

76:                                               ; preds = %69
  br label %77

77:                                               ; preds = %76
  store i8 1, ptr %9, align 1, !tbaa !7
  %78 = load i8, ptr %9, align 1, !tbaa !7, !range !9, !noundef !10
  %79 = trunc i8 %78 to i1
  %80 = zext i1 %79 to i8
  store i8 %80, ptr %9, align 1, !tbaa !7
  br label %81

81:                                               ; preds = %77
  br label %82

82:                                               ; preds = %81
  br label %83

83:                                               ; preds = %82
  store i32 -1, ptr %8, align 4, !tbaa !3
  store i32 10, ptr %11, align 4
  br label %88

84:                                               ; No predecessors!
  br label %85

85:                                               ; preds = %84
  br label %86

86:                                               ; preds = %85
  br label %87

87:                                               ; preds = %86
  store i32 0, ptr %11, align 4
  br label %88

88:                                               ; preds = %83, %87
  call void @llvm.lifetime.end.p0(i64 4, ptr %10) #12
  %89 = load i32, ptr %11, align 4
  switch i32 %89, label %96 [
    i32 0, label %90
    i32 10, label %93
  ]

90:                                               ; preds = %88
  br label %91

91:                                               ; preds = %90, %60
  br label %92

92:                                               ; preds = %91, %55
  br label %93

93:                                               ; preds = %92, %88, %44
  br label %94

94:                                               ; preds = %93, %18
  %95 = load i32, ptr %8, align 4, !tbaa !3
  store i32 %95, ptr %3, align 4
  store i32 1, ptr %11, align 4
  br label %96

96:                                               ; preds = %94, %88
  call void @llvm.lifetime.end.p0(i64 1, ptr %9) #12
  call void @llvm.lifetime.end.p0(i64 4, ptr %8) #12
  call void @llvm.lifetime.end.p0(i64 8, ptr %7) #12
  call void @llvm.lifetime.end.p0(i64 8, ptr %6) #12
  %97 = load i32, ptr %3, align 4
  ret i32 %97
}