; Function Attrs: nounwind uwtable
define internal range(i32 -1, 1) i32 @H5FD__core_delete(ptr noundef readonly captures(none) %0, i64 noundef %1) #0 {
  %3 = load i8, ptr @H5FD_init_g, align 1, !tbaa !3, !range !7, !noundef !8
  %4 = trunc nuw i8 %3 to i1
  %5 = load i8, ptr @H5_libterm_g, align 1, !range !7
  %6 = trunc nuw i8 %5 to i1
  %7 = xor i1 %6, true
  %8 = select i1 %4, i1 true, i1 %7
  br i1 %8, label %9, label %39, !prof !9

9:                                                ; preds = %2
  %10 = tail call ptr @H5I_object(i64 noundef %1) #18
  %11 = icmp eq ptr %10, null
  br i1 %11, label %12, label %16

12:                                               ; preds = %9
  %13 = load i64, ptr @H5E_ARGS_g, align 8, !tbaa !10
  %14 = load i64, ptr @H5E_BADTYPE_g, align 8, !tbaa !10
  %15 = tail call i32 (ptr, ptr, i32, i64, i64, ptr, ...) @H5E_printf_stack(ptr noundef nonnull @.str.1, ptr noundef nonnull @__func__.H5FD__core_delete, i32 noundef 1700, i64 noundef %13, i64 noundef %14, ptr noundef nonnull @.str.11) #18
  br label %39

16:                                               ; preds = %9
  %17 = tail call ptr @H5P_peek_driver_info(ptr noundef nonnull %10) #18
  %18 = icmp eq ptr %17, null
  br i1 %18, label %19, label %H5FD__core_get_default_config.exit

19:                                               ; preds = %16
  %20 = tail call ptr @getenv(ptr noundef nonnull @.str.54) #18
  %.not.i = icmp eq ptr %20, null
  br i1 %.not.i, label %25, label %21

21:                                               ; preds = %19
  %22 = tail call i32 @strcmp(ptr noundef nonnull dereferenceable(1) %20, ptr noundef nonnull dereferenceable(5) @.str.12) #19
  %.not5.i = icmp eq i32 %22, 0
  br i1 %.not5.i, label %H5FD__core_get_default_config.exit, label %23

23:                                               ; preds = %21
  %24 = tail call i32 @strcmp(ptr noundef nonnull dereferenceable(1) %20, ptr noundef nonnull dereferenceable(11) @.str.55) #19
  %.not6.i = icmp eq i32 %24, 0
  br i1 %.not6.i, label %H5FD__core_get_default_config.exit, label %25

25:                                               ; preds = %23, %19
  br label %H5FD__core_get_default_config.exit

H5FD__core_get_default_config.exit:               ; preds = %25, %23, %21, %16
  %.011 = phi ptr [ %17, %16 ], [ @H5FD_core_default_config_g, %25 ], [ @H5FD_core_default_config_g, %21 ], [ @H5FD_core_default_paged_config_g, %23 ]
  %26 = getelementptr inbounds nuw i8, ptr %.011, i64 8
  %27 = load i8, ptr %26, align 8, !tbaa !18, !range !7, !noundef !8
  %28 = trunc nuw i8 %27 to i1
  br i1 %28, label %29, label %39

29:                                               ; preds = %H5FD__core_get_default_config.exit
  %30 = tail call i32 @remove(ptr noundef %0) #18
  %31 = icmp slt i32 %30, 0
  br i1 %31, label %32, label %39

32:                                               ; preds = %29
  %33 = tail call ptr @__errno_location() #21
  %34 = load i32, ptr %33, align 4, !tbaa !36
  %35 = load i64, ptr @H5E_VFL_g, align 8, !tbaa !10
  %36 = load i64, ptr @H5E_CANTDELETEFILE_g, align 8, !tbaa !10
  %37 = tail call ptr @strerror(i32 noundef %34) #18
  %38 = tail call i32 (ptr, ptr, i32, i64, i64, ptr, ...) @H5E_printf_stack(ptr noundef nonnull @.str.1, ptr noundef nonnull @__func__.H5FD__core_delete, i32 noundef 1706, i64 noundef %35, i64 noundef %36, ptr noundef nonnull @.str.22, ptr noundef nonnull @.str.53, i32 noundef %34, ptr noundef %37) #18
  br label %39

39:                                               ; preds = %2, %H5FD__core_get_default_config.exit, %29, %12, %32
  %.010 = phi i32 [ -1, %12 ], [ -1, %32 ], [ 0, %29 ], [ 0, %H5FD__core_get_default_config.exit ], [ 0, %2 ]
  ret i32 %.010
}